; Function Attrs: mustprogress nounwind uwtable
define hidden void @_ZN13StubGenerator11ev_load_keyE11XMMRegister8RegisteriS1_(ptr nocapture noundef nonnull readonly align 8 dereferenceable(24) %0, i32 %1, i32 %2, i32 noundef %3, i32 %4) local_unnamed_addr #0 align 2 {
  %6 = alloca %class.Address, align 8
  %7 = alloca %class.AddressLiteral, align 8
  %8 = alloca %class.ExternalAddress, align 8
  %9 = getelementptr inbounds i8, ptr %0, i64 16
  %10 = load ptr, ptr %9, align 8
  store i32 %2, ptr %6, align 8
  %11 = getelementptr inbounds i8, ptr %6, i64 4
  store i32 -1, ptr %11, align 4
  %12 = getelementptr inbounds i8, ptr %6, i64 8
  store i32 -1, ptr %12, align 8
  %13 = getelementptr inbounds i8, ptr %6, i64 12
  store i32 -1, ptr %13, align 4
  %14 = getelementptr inbounds i8, ptr %6, i64 16
  store i32 %3, ptr %14, align 8
  %15 = getelementptr inbounds i8, ptr %6, i64 20
  store i8 0, ptr %15, align 4
  %16 = getelementptr inbounds i8, ptr %6, i64 24
  store ptr getelementptr inbounds inrange(-16, 72) (i8, ptr @_ZTV10Relocation, i64 16), ptr %16, align 8
  %17 = getelementptr inbounds i8, ptr %6, i64 32
  store ptr null, ptr %17, align 8
  %18 = getelementptr inbounds i8, ptr %6, i64 40
  store i32 0, ptr %18, align 8
  call void @_ZN14MacroAssembler6movdquE11XMMRegister7Address(ptr noundef nonnull align 8 dereferenceable(40) %10, i32 %1, ptr noundef nonnull %6) #7
  %19 = load ptr, ptr %9, align 8
  call void @_ZN14AddressLiteralC2EPhN9relocInfo9relocTypeE(ptr noundef nonnull align 8 dereferenceable(56) %8, ptr noundef nonnull @_ZL16KEY_SHUFFLE_MASK, i32 noundef 7) #7
  %20 = load ptr, ptr %8, align 8
  %21 = getelementptr inbounds i8, ptr %20, i64 16
  %22 = load ptr, ptr %21, align 8
  call void %22(ptr noundef nonnull align 8 dereferenceable(20) %8, ptr noundef nonnull align 8 dereferenceable(40) %7) #7
  %23 = getelementptr inbounds i8, ptr %7, i64 40
  %24 = getelementptr inbounds i8, ptr %8, i64 40
  call void @llvm.memcpy.p0.p0.i64(ptr noundef nonnull align 8 dereferenceable(16) %23, ptr noundef nonnull align 8 dereferenceable(16) %24, i64 16, i1 false)
  call void @_ZN14MacroAssembler6pshufbE11XMMRegister14AddressLiteral8Register(ptr noundef nonnull align 8 dereferenceable(40) %19, i32 %1, ptr noundef nonnull %7, i32 %4) #7
  %25 = load ptr, ptr %9, align 8
  call void @_ZN9Assembler11evshufi64x2E11XMMRegisterS0_S0_ii(ptr noundef nonnull align 8 dereferenceable(40) %25, i32 %1, i32 %1, i32 %1, i32 noundef 0, i32 noundef 2) #7
  ret void
}